; Function Attrs: mustprogress nofree norecurse nosync nounwind memory(readwrite, inaccessiblemem: none) uwtable
define hidden void @_ZNK7datalog15bitvector_table11offset2factEjR7svectorImjE(ptr nocapture noundef nonnull readonly align 8 dereferenceable(80) %this, i32 noundef %offset, ptr nocapture noundef nonnull readonly align 8 dereferenceable(8) %f) local_unnamed_addr #6 align 2 {
entry:
  %m_num_cols = getelementptr inbounds i8, ptr %this, i64 56
  %0 = load i32, ptr %m_num_cols, align 8
  %cmp9.not = icmp eq i32 %0, 0
  br i1 %cmp9.not, label %for.end, label %for.body.lr.ph

for.body.lr.ph:                                   ; preds = %entry
  %m_mask = getelementptr inbounds i8, ptr %this, i64 72
  %m_shift = getelementptr inbounds i8, ptr %this, i64 64
  br label %for.body

for.body:                                         ; preds = %for.body.lr.ph, %for.body
  %indvars.iv = phi i64 [ 0, %for.body.lr.ph ], [ %indvars.iv.next, %for.body ]
  %1 = load ptr, ptr %m_mask, align 8
  %arrayidx.i = getelementptr inbounds i32, ptr %1, i64 %indvars.iv
  %2 = load i32, ptr %arrayidx.i, align 4
  %3 = load ptr, ptr %m_shift, align 8
  %arrayidx.i6 = getelementptr inbounds i32, ptr %3, i64 %indvars.iv
  %4 = load i32, ptr %arrayidx.i6, align 4
  %shr = lshr i32 %offset, %4
  %and = and i32 %shr, %2
  %conv = zext i32 %and to i64
  %5 = load ptr, ptr %f, align 8
  %arrayidx.i8 = getelementptr inbounds i64, ptr %5, i64 %indvars.iv
  store i64 %conv, ptr %arrayidx.i8, align 8
  %indvars.iv.next = add nuw nsw i64 %indvars.iv, 1
  %6 = load i32, ptr %m_num_cols, align 8
  %7 = zext i32 %6 to i64
  %cmp = icmp ult i64 %indvars.iv.next, %7
  br i1 %cmp, label %for.body, label %for.end, !llvm.loop !18

for.end:                                          ; preds = %for.body, %entry
  ret void
}